; ModuleID = '24/793.c'
source_filename = "24/793.c"
target datalayout = "e-m:e-p270:32:32-p271:32:32-p272:64:64-i64:64-f80:128-n8:16:32:64-S128"
target triple = "x86_64-pc-linux-gnu"

@.str = private unnamed_addr constant [3 x i8] c"%s\00", align 1
@.str.1 = private unnamed_addr constant [7 x i8] c"%s\0A%s\0A\00", align 1

; Function Attrs: noinline nounwind uwtable
define dso_local void @main() #0 {
  %1 = alloca [50 x [50 x i8]], align 16
  %2 = alloca i8, align 1
  %3 = alloca [50 x i32], align 16
  %4 = alloca i32, align 4
  %5 = alloca i32, align 4
  %6 = alloca i32, align 4
  %7 = alloca i32, align 4
  %8 = alloca i32, align 4
  %9 = bitcast [50 x [50 x i8]]* %1 to i8*
  call void @llvm.memset.p0i8.i64(i8* align 16 %9, i8 0, i64 2500, i1 false)
  %10 = bitcast [50 x i32]* %3 to i8*
  call void @llvm.memset.p0i8.i64(i8* align 16 %10, i8 0, i64 200, i1 false)
  store i32 0, i32* %4, align 4
  br label %11

11:                                               ; preds = %25, %0
  %12 = load i32, i32* %4, align 4
  %13 = sext i32 %12 to i64
  %14 = getelementptr inbounds [50 x [50 x i8]], [50 x [50 x i8]]* %1, i64 0, i64 %13
  %15 = getelementptr inbounds [50 x i8], [50 x i8]* %14, i64 0, i64 0
  %16 = call i32 (i8*, ...) @__isoc99_scanf(i8* getelementptr inbounds ([3 x i8], [3 x i8]* @.str, i64 0, i64 0), i8* %15)
  %17 = call i32 @getchar()
  %18 = icmp eq i32 %17, 10
  %19 = zext i1 %18 to i32
  %20 = trunc i32 %19 to i8
  store i8 %20, i8* %2, align 1
  %21 = icmp ne i8 %20, 0
  br i1 %21, label %22, label %23

22:                                               ; preds = %11
  br label %28

23:                                               ; preds = %11
  %24 = load i32, i32* %4, align 4
  store i32 %24, i32* %6, align 4
  br label %25

25:                                               ; preds = %23
  %26 = load i32, i32* %4, align 4
  %27 = add nsw i32 %26, 1
  store i32 %27, i32* %4, align 4
  br label %11

28:                                               ; preds = %22
  store i32 0, i32* %4, align 4
  br label %29

29:                                               ; preds = %59, %28
  %30 = load i32, i32* %4, align 4
  %31 = load i32, i32* %6, align 4
  %32 = add nsw i32 %31, 1
  %33 = icmp sle i32 %30, %32
  br i1 %33, label %34, label %62

34:                                               ; preds = %29
  store i32 0, i32* %5, align 4
  br label %35

35:                                               ; preds = %55, %34
  %36 = load i32, i32* %5, align 4
  %37 = icmp slt i32 %36, 50
  br i1 %37, label %38, label %58

38:                                               ; preds = %35
  %39 = load i32, i32* %4, align 4
  %40 = sext i32 %39 to i64
  %41 = getelementptr inbounds [50 x [50 x i8]], [50 x [50 x i8]]* %1, i64 0, i64 %40
  %42 = load i32, i32* %5, align 4
  %43 = sext i32 %42 to i64
  %44 = getelementptr inbounds [50 x i8], [50 x i8]* %41, i64 0, i64 %43
  %45 = load i8, i8* %44, align 1
  %46 = sext i8 %45 to i32
  %47 = icmp ne i32 %46, 0
  br i1 %47, label %48, label %54

48:                                               ; preds = %38
  %49 = load i32, i32* %4, align 4
  %50 = sext i32 %49 to i64
  %51 = getelementptr inbounds [50 x i32], [50 x i32]* %3, i64 0, i64 %50
  %52 = load i32, i32* %51, align 4
  %53 = add nsw i32 %52, 1
  store i32 %53, i32* %51, align 4
  br label %54

54:                                               ; preds = %48, %38
  br label %55

55:                                               ; preds = %54
  %56 = load i32, i32* %5, align 4
  %57 = add nsw i32 %56, 1
  store i32 %57, i32* %5, align 4
  br label %35

58:                                               ; preds = %35
  br label %59

59:                                               ; preds = %58
  %60 = load i32, i32* %4, align 4
  %61 = add nsw i32 %60, 1
  store i32 %61, i32* %4, align 4
  br label %29

62:                                               ; preds = %29
  store i32 1, i32* %4, align 4
  store i32 0, i32* %7, align 4
  store i32 0, i32* %8, align 4
  br label %63

63:                                               ; preds = %93, %62
  %64 = load i32, i32* %4, align 4
  %65 = load i32, i32* %6, align 4
  %66 = add nsw i32 %65, 1
  %67 = icmp sle i32 %64, %66
  br i1 %67, label %68, label %96

68:                                               ; preds = %63
  %69 = load i32, i32* %4, align 4
  %70 = sext i32 %69 to i64
  %71 = getelementptr inbounds [50 x i32], [50 x i32]* %3, i64 0, i64 %70
  %72 = load i32, i32* %71, align 4
  %73 = load i32, i32* %7, align 4
  %74 = sext i32 %73 to i64
  %75 = getelementptr inbounds [50 x i32], [50 x i32]* %3, i64 0, i64 %74
  %76 = load i32, i32* %75, align 4
  %77 = icmp sgt i32 %72, %76
  br i1 %77, label %78, label %80

78:                                               ; preds = %68
  %79 = load i32, i32* %4, align 4
  store i32 %79, i32* %7, align 4
  br label %80

80:                                               ; preds = %78, %68
  %81 = load i32, i32* %4, align 4
  %82 = sext i32 %81 to i64
  %83 = getelementptr inbounds [50 x i32], [50 x i32]* %3, i64 0, i64 %82
  %84 = load i32, i32* %83, align 4
  %85 = load i32, i32* %8, align 4
  %86 = sext i32 %85 to i64
  %87 = getelementptr inbounds [50 x i32], [50 x i32]* %3, i64 0, i64 %86
  %88 = load i32, i32* %87, align 4
  %89 = icmp slt i32 %84, %88
  br i1 %89, label %90, label %92

90:                                               ; preds = %80
  %91 = load i32, i32* %4, align 4
  store i32 %91, i32* %8, align 4
  br label %92

92:                                               ; preds = %90, %80
  br label %93

93:                                               ; preds = %92
  %94 = load i32, i32* %4, align 4
  %95 = add nsw i32 %94, 1
  store i32 %95, i32* %4, align 4
  br label %63

96:                                               ; preds = %63
  %97 = load i32, i32* %7, align 4
  %98 = sext i32 %97 to i64
  %99 = getelementptr inbounds [50 x [50 x i8]], [50 x [50 x i8]]* %1, i64 0, i64 %98
  %100 = getelementptr inbounds [50 x i8], [50 x i8]* %99, i64 0, i64 0
  %101 = load i32, i32* %8, align 4
  %102 = sext i32 %101 to i64
  %103 = getelementptr inbounds [50 x [50 x i8]], [50 x [50 x i8]]* %1, i64 0, i64 %102
  %104 = getelementptr inbounds [50 x i8], [50 x i8]* %103, i64 0, i64 0
  %105 = call i32 (i8*, ...) @printf(i8* getelementptr inbounds ([7 x i8], [7 x i8]* @.str.1, i64 0, i64 0), i8* %100, i8* %104)
  ret void
}

; Function Attrs: argmemonly nounwind willreturn
declare void @llvm.memset.p0i8.i64(i8* nocapture writeonly, i8, i64, i1 immarg) #1

declare dso_local i32 @__isoc99_scanf(i8*, ...) #2

declare dso_local i32 @getchar() #2

declare dso_local i32 @printf(i8*, ...) #2


!llvm.module.flags = !{!0}
!llvm.ident = !{!1}

!0 = !{i32 1, !"wchar_size", i32 4}
!1 = !{!"clang version 10.0.0-4ubuntu1 "}
